; Function Attrs: mustprogress uwtable
define internal fastcc void @_ZN12_GLOBAL__N_112WriteIntegerIjEEvP8_IO_FILET_(ptr nocapture noundef %0, i32 noundef %1) unnamed_addr #4 personality ptr @__gxx_personality_v0 {
  %3 = alloca i32, align 4
  %4 = alloca %"class.std::__cxx11::basic_string", align 8
  %5 = alloca %"class.std::allocator", align 1
  store i32 %1, ptr %3, align 4
  %6 = call i64 @fwrite(ptr noundef nonnull %3, i64 noundef 4, i64 noundef 1, ptr noundef %0)
  %.not = icmp eq i64 %6, 1
  br i1 %.not, label %15, label %7

7:                                                ; preds = %2
  %8 = tail call ptr @__cxa_allocate_exception(i64 40) #19
  call void @_ZNSaIcEC1Ev(ptr noundef nonnull align 1 dereferenceable(1) %5) #19
  invoke void @_ZNSt7__cxx1112basic_stringIcSt11char_traitsIcESaIcEEC1EPKcRKS3_(ptr noundef nonnull align 8 dereferenceable(32) %4, ptr noundef nonnull @.str.10, ptr noundef nonnull align 1 dereferenceable(1) %5)
          to label %9 unwind label %.thread

9:                                                ; preds = %7
  invoke void @_ZN6opencc13InvalidFormatC2ERKNSt7__cxx1112basic_stringIcSt11char_traitsIcESaIcEEE(ptr noundef nonnull align 8 dereferenceable(40) %8, ptr noundef nonnull align 8 dereferenceable(32) %4)
          to label %10 unwind label %12

10:                                               ; preds = %9
  invoke void @__cxa_throw(ptr nonnull %8, ptr nonnull @_ZTIN6opencc13InvalidFormatE, ptr nonnull @_ZN6opencc13InvalidFormatD2Ev) #20
          to label %17 unwind label %12

.thread:                                          ; preds = %7
  %11 = landingpad { ptr, i32 }
          cleanup
  call void @_ZNSaIcED1Ev(ptr noundef nonnull align 1 dereferenceable(1) %5) #19
  br label %14

12:                                               ; preds = %9, %10
  %.0 = phi i1 [ false, %10 ], [ true, %9 ]
  %13 = landingpad { ptr, i32 }
          cleanup
  call void @_ZNSt7__cxx1112basic_stringIcSt11char_traitsIcESaIcEED1Ev(ptr noundef nonnull align 8 dereferenceable(32) %4) #19
  call void @_ZNSaIcED1Ev(ptr noundef nonnull align 1 dereferenceable(1) %5) #19
  br i1 %.0, label %14, label %16

14:                                               ; preds = %.thread, %12
  %.pn10 = phi { ptr, i32 } [ %11, %.thread ], [ %13, %12 ]
  call void @__cxa_free_exception(ptr %8) #19
  br label %16

15:                                               ; preds = %2
  ret void

16:                                               ; preds = %12, %14
  %.pn9 = phi { ptr, i32 } [ %13, %12 ], [ %.pn10, %14 ]
  resume { ptr, i32 } %.pn9

17:                                               ; preds = %10
  unreachable
}